; Function Attrs: inlinehint mustprogress nounwind uwtable
define internal void @_ZN3gmx15analysismodules12_GLOBAL__N_122PairDistanceModuleDataD2Ev(ptr noundef nonnull align 8 dereferenceable(88) initializes((0, 8)) %0) unnamed_addr #5 align 2 personality ptr @__gxx_personality_v0 {
  store ptr getelementptr inbounds nuw inrange(-16, 24) (i8, ptr @_ZTVN3gmx15analysismodules12_GLOBAL__N_122PairDistanceModuleDataE, i64 16), ptr %0, align 8, !tbaa !4
  %2 = getelementptr inbounds nuw i8, ptr %0, i64 64
  %3 = load ptr, ptr %2, align 8, !tbaa !148
  %.not.i.i.i = icmp eq ptr %3, null
  br i1 %.not.i.i.i, label %_ZNSt6vectorIiSaIiEED2Ev.exit, label %4

4:                                                ; preds = %1
  %5 = getelementptr inbounds nuw i8, ptr %0, i64 80
  %6 = load ptr, ptr %5, align 8, !tbaa !169
  %7 = ptrtoint ptr %6 to i64
  %8 = ptrtoint ptr %3 to i64
  %9 = sub i64 %7, %8
  tail call void @_ZdlPvm(ptr noundef nonnull %3, i64 noundef %9) #25
  br label %_ZNSt6vectorIiSaIiEED2Ev.exit

_ZNSt6vectorIiSaIiEED2Ev.exit:                    ; preds = %1, %4
  %10 = getelementptr inbounds nuw i8, ptr %0, i64 40
  %11 = load ptr, ptr %10, align 8, !tbaa !148
  %.not.i.i.i1 = icmp eq ptr %11, null
  br i1 %.not.i.i.i1, label %_ZNSt6vectorIiSaIiEED2Ev.exit2, label %12

12:                                               ; preds = %_ZNSt6vectorIiSaIiEED2Ev.exit
  %13 = getelementptr inbounds nuw i8, ptr %0, i64 56
  %14 = load ptr, ptr %13, align 8, !tbaa !169
  %15 = ptrtoint ptr %14 to i64
  %16 = ptrtoint ptr %11 to i64
  %17 = sub i64 %15, %16
  tail call void @_ZdlPvm(ptr noundef nonnull %11, i64 noundef %17) #25
  br label %_ZNSt6vectorIiSaIiEED2Ev.exit2

_ZNSt6vectorIiSaIiEED2Ev.exit2:                   ; preds = %_ZNSt6vectorIiSaIiEED2Ev.exit, %12
  %18 = getelementptr inbounds nuw i8, ptr %0, i64 16
  %19 = load ptr, ptr %18, align 8, !tbaa !170
  %.not.i.i.i3 = icmp eq ptr %19, null
  br i1 %.not.i.i.i3, label %_ZNSt6vectorIfSaIfEED2Ev.exit, label %20

20:                                               ; preds = %_ZNSt6vectorIiSaIiEED2Ev.exit2
  %21 = getelementptr inbounds nuw i8, ptr %0, i64 32
  %22 = load ptr, ptr %21, align 8, !tbaa !171
  %23 = ptrtoint ptr %22 to i64
  %24 = ptrtoint ptr %19 to i64
  %25 = sub i64 %23, %24
  tail call void @_ZdlPvm(ptr noundef nonnull %19, i64 noundef %25) #25
  br label %_ZNSt6vectorIfSaIfEED2Ev.exit

_ZNSt6vectorIfSaIfEED2Ev.exit:                    ; preds = %_ZNSt6vectorIiSaIiEED2Ev.exit2, %20
  tail call void @_ZN3gmx28TrajectoryAnalysisModuleDataD2Ev(ptr noundef nonnull align 8 dereferenceable(16) %0) #24
  ret void
}